; Function Attrs: mustprogress uwtable
define noundef nonnull align 8 dereferenceable(127) ptr @_ZN6icu_7714MessagePatternaSERKS0_(ptr noundef nonnull returned align 8 dereferenceable(127) %0, ptr noundef nonnull align 8 dereferenceable(127) %1) local_unnamed_addr #2 align 2 {
  %3 = alloca i32, align 4
  %4 = icmp eq ptr %0, %1
  br i1 %4, label %30, label %5

5:                                                ; preds = %2
  %6 = getelementptr inbounds nuw i8, ptr %1, i64 8
  %7 = load i32, ptr %6, align 8, !tbaa !6
  %8 = getelementptr inbounds nuw i8, ptr %0, i64 8
  store i32 %7, ptr %8, align 8, !tbaa !6
  %9 = getelementptr inbounds nuw i8, ptr %1, i64 16
  %10 = getelementptr inbounds nuw i8, ptr %0, i64 16
  %11 = tail call noundef nonnull align 8 dereferenceable(64) ptr @_ZN6icu_7713UnicodeStringaSERKS0_(ptr noundef nonnull align 8 dereferenceable(64) %10, ptr noundef nonnull align 8 dereferenceable(64) %9)
  %12 = getelementptr inbounds nuw i8, ptr %1, i64 124
  %13 = load i8, ptr %12, align 4, !tbaa !37
  %14 = getelementptr inbounds nuw i8, ptr %0, i64 124
  store i8 %13, ptr %14, align 4, !tbaa !37
  %15 = getelementptr inbounds nuw i8, ptr %1, i64 125
  %16 = load i8, ptr %15, align 1, !tbaa !38
  %17 = getelementptr inbounds nuw i8, ptr %0, i64 125
  store i8 %16, ptr %17, align 1, !tbaa !38
  %18 = getelementptr inbounds nuw i8, ptr %1, i64 126
  %19 = load i8, ptr %18, align 2, !tbaa !39
  %20 = getelementptr inbounds nuw i8, ptr %0, i64 126
  store i8 %19, ptr %20, align 2, !tbaa !39
  call void @llvm.lifetime.start.p0(i64 4, ptr nonnull %3) #18
  store i32 0, ptr %3, align 4, !tbaa !20
  %21 = call noundef signext i8 @_ZN6icu_7714MessagePattern11copyStorageERKS0_R10UErrorCode(ptr noundef nonnull align 8 dereferenceable(127) %0, ptr noundef nonnull align 8 dereferenceable(127) %1, ptr noundef nonnull align 4 dereferenceable(4) %3)
  %.not = icmp eq i8 %21, 0
  br i1 %.not, label %22, label %29

22:                                               ; preds = %5
  %23 = getelementptr inbounds nuw i8, ptr %0, i64 24
  %24 = load i16, ptr %23, align 8, !tbaa !19
  %25 = and i16 %24, 1
  %.not.i.i = icmp eq i16 %25, 0
  %26 = and i16 %24, 30
  %storemerge.i.i = select i1 %.not.i.i, i16 %26, i16 2
  store i16 %storemerge.i.i, ptr %23, align 8, !tbaa !19
  %27 = getelementptr inbounds nuw i8, ptr %0, i64 96
  store i32 0, ptr %27, align 8, !tbaa !32
  %28 = getelementptr inbounds nuw i8, ptr %0, i64 120
  tail call void @llvm.memset.p0.i64(ptr noundef nonnull align 8 dereferenceable(7) %28, i8 0, i64 7, i1 false)
  br label %29

29:                                               ; preds = %22, %5
  call void @llvm.lifetime.end.p0(i64 4, ptr nonnull %3) #18
  br label %30

30:                                               ; preds = %2, %29
  ret ptr %0
}